; Function Attrs: nounwind uwtable
define dso_local zeroext i1 @op_mergejoinable(i32 noundef %0, i32 noundef %1) local_unnamed_addr #0 {
  switch i32 %0, label %13 [
    i32 1070, label %3
    i32 2988, label %8
  ]

3:                                                ; preds = %2
  %4 = tail call ptr @lookup_type_cache(i32 noundef %1, i32 noundef 8) #8
  %5 = getelementptr inbounds nuw i8, ptr %4, i64 60
  %6 = load i32, ptr %5, align 4
  %7 = icmp eq i32 %6, 382
  br label %25

8:                                                ; preds = %2
  %9 = tail call ptr @lookup_type_cache(i32 noundef %1, i32 noundef 8) #8
  %10 = getelementptr inbounds nuw i8, ptr %9, i64 60
  %11 = load i32, ptr %10, align 4
  %12 = icmp eq i32 %11, 2987
  br label %25

13:                                               ; preds = %2
  %14 = zext i32 %0 to i64
  %15 = tail call ptr @SearchSysCache1(i32 noundef 40, i64 noundef %14) #8
  %.not = icmp eq ptr %15, null
  br i1 %.not, label %25, label %16

16:                                               ; preds = %13
  %17 = getelementptr i8, ptr %15, i64 16
  %.val = load ptr, ptr %17, align 8
  %18 = getelementptr inbounds nuw i8, ptr %.val, i64 22
  %19 = load i8, ptr %18, align 2
  %20 = zext i8 %19 to i64
  %21 = getelementptr inbounds nuw i8, ptr %.val, i64 %20
  %22 = getelementptr inbounds nuw i8, ptr %21, i64 77
  %23 = load i8, ptr %22, align 1, !range !14, !noundef !15
  tail call void @ReleaseSysCache(ptr noundef nonnull %15) #8
  %24 = trunc nuw i8 %23 to i1
  br label %25

25:                                               ; preds = %8, %3, %16, %13
  %.0 = phi i1 [ %24, %16 ], [ false, %13 ], [ %7, %3 ], [ %12, %8 ]
  ret i1 %.0
}